; Function Attrs: mustprogress uwtable
define noundef i64 @_ZN5arrow8internal11GetPageSizeEv() local_unnamed_addr #3 personality ptr @__gxx_personality_v0 {
  %1 = load atomic i8, ptr @_ZGVZN5arrow8internal11GetPageSizeEvE9kPageSize acquire, align 8
  %2 = icmp eq i8 %1, 0
  br i1 %2, label %3, label %9, !prof !455

3:                                                ; preds = %0
  %4 = tail call i32 @__cxa_guard_acquire(ptr nonnull @_ZGVZN5arrow8internal11GetPageSizeEvE9kPageSize) #38
  %.not = icmp eq i32 %4, 0
  br i1 %.not, label %9, label %5

5:                                                ; preds = %3
  %6 = invoke fastcc noundef i64 @_ZN5arrow8internal12_GLOBAL__N_119GetPageSizeInternalEv()
          to label %7 unwind label %11

7:                                                ; preds = %5
  store i64 %6, ptr @_ZZN5arrow8internal11GetPageSizeEvE9kPageSize, align 8, !tbaa !9
  %8 = tail call ptr @llvm.invariant.start.p0(i64 8, ptr nonnull @_ZZN5arrow8internal11GetPageSizeEvE9kPageSize)
  tail call void @__cxa_guard_release(ptr nonnull @_ZGVZN5arrow8internal11GetPageSizeEvE9kPageSize) #38
  br label %9

9:                                                ; preds = %7, %3, %0
  %10 = load i64, ptr @_ZZN5arrow8internal11GetPageSizeEvE9kPageSize, align 8, !tbaa !9
  ret i64 %10

11:                                               ; preds = %5
  %12 = landingpad { ptr, i32 }
          cleanup
  tail call void @__cxa_guard_abort(ptr nonnull @_ZGVZN5arrow8internal11GetPageSizeEvE9kPageSize) #38
  resume { ptr, i32 } %12
}